target datalayout = "e-m:e-p270:32:32-p271:32:32-p272:64:64-i64:64-i128:128-f80:128-n8:16:32:64-S128"
target triple = "x86_64-pc-linux-gnu"

%struct._rose_ctx_t = type { i32, ptr, ptr, ptr, ptr, ptr, ptr, i32, i8, ptr, i64, %struct.anon, ptr }
%struct.anon = type { i32, i32, i32, ptr, ptr }

@.str.592 = private unnamed_addr constant [29 x i8] c"H.450 Supplementary Services\00", align 1
@.str.593 = private unnamed_addr constant [6 x i8] c"H.450\00", align 1
@.str.594 = private unnamed_addr constant [5 x i8] c"h450\00", align 1
@proto_h450 = internal global i32 0, align 4
@.str.595 = private unnamed_addr constant [6 x i8] c"h4501\00", align 1
@h450_rose_ctx = internal global %struct._rose_ctx_t zeroinitializer, align 8
@.str.596 = private unnamed_addr constant [10 x i8] c"h4501_arg\00", align 1
@h450_arg_handle = internal global ptr null, align 8
@.str.597 = private unnamed_addr constant [10 x i8] c"h4501_res\00", align 1
@h450_res_handle = internal global ptr null, align 8
@.str.598 = private unnamed_addr constant [10 x i8] c"h4501_err\00", align 1
@h450_err_handle = internal global ptr null, align 8
@.str.599 = private unnamed_addr constant [20 x i8] c"h450.ros.global.arg\00", align 1
@.str.600 = private unnamed_addr constant [41 x i8] c"H.450 Operation Argument (global opcode)\00", align 1
@.str.601 = private unnamed_addr constant [20 x i8] c"h450.ros.global.res\00", align 1
@.str.602 = private unnamed_addr constant [39 x i8] c"H.450 Operation Result (global opcode)\00", align 1
@.str.603 = private unnamed_addr constant [19 x i8] c"h450.ros.local.arg\00", align 1
@.str.604 = private unnamed_addr constant [40 x i8] c"H.450 Operation Argument (local opcode)\00", align 1
@.str.605 = private unnamed_addr constant [19 x i8] c"h450.ros.local.res\00", align 1
@.str.606 = private unnamed_addr constant [38 x i8] c"H.450 Operation Result (local opcode)\00", align 1
@.str.607 = private unnamed_addr constant [20 x i8] c"h450.ros.global.err\00", align 1
@.str.608 = private unnamed_addr constant [28 x i8] c"H.450 Error (global opcode)\00", align 1
@.str.609 = private unnamed_addr constant [19 x i8] c"h450.ros.local.err\00", align 1
@.str.610 = private unnamed_addr constant [27 x i8] c"H.450 Error (local opcode)\00", align 1

; Function Attrs: null_pointer_is_valid sspstrong uwtable
define hidden void @proto_register_h450() #0 {
  %1 = alloca ptr, align 8
  call void @llvm.lifetime.start.p0(i64 8, ptr %1) #6
  %2 = call i32 @proto_register_protocol(ptr noundef @.str.592, ptr noundef @.str.593, ptr noundef @.str.594)
  store i32 %2, ptr @proto_h450, align 4
  %3 = load i32, ptr @proto_h450, align 4
  %4 = call ptr @register_dissector(ptr noundef @.str.595, ptr noundef @dissect_h450_H4501SupplementaryService_PDU, i32 noundef %3)
  %5 = load i32, ptr @proto_h450, align 4
  call void @proto_register_field_array(i32 noundef %5, ptr noundef @proto_register_h450.hf, i32 noundef 350)
  call void @proto_register_subtree_array(ptr noundef @proto_register_h450.ett, i32 noundef 134)
  %6 = load i32, ptr @proto_h450, align 4
  %7 = call ptr @expert_register_protocol(i32 noundef %6)
  store ptr %7, ptr %1, align 8
  %8 = load ptr, ptr %1, align 8
  call void @expert_register_field_array(ptr noundef %8, ptr noundef @proto_register_h450.ei, i32 noundef 3)
  call void @rose_ctx_init(ptr noundef @h450_rose_ctx)
  %9 = load i32, ptr @proto_h450, align 4
  %10 = call ptr @register_dissector(ptr noundef @.str.596, ptr noundef @dissect_h450_arg, i32 noundef %9)
  store ptr %10, ptr @h450_arg_handle, align 8
  %11 = load i32, ptr @proto_h450, align 4
  %12 = call ptr @register_dissector(ptr noundef @.str.597, ptr noundef @dissect_h450_res, i32 noundef %11)
  store ptr %12, ptr @h450_res_handle, align 8
  %13 = load i32, ptr @proto_h450, align 4
  %14 = call ptr @register_dissector(ptr noundef @.str.598, ptr noundef @dissect_h450_err, i32 noundef %13)
  store ptr %14, ptr @h450_err_handle, align 8
  %15 = load i32, ptr @proto_h450, align 4
  %16 = call ptr @register_dissector_table(ptr noundef @.str.599, ptr noundef @.str.600, i32 noundef %15, i32 noundef 26, i32 noundef 0)
  store ptr %16, ptr getelementptr inbounds nuw (%struct._rose_ctx_t, ptr @h450_rose_ctx, i32 0, i32 1), align 8
  %17 = load i32, ptr @proto_h450, align 4
  %18 = call ptr @register_dissector_table(ptr noundef @.str.601, ptr noundef @.str.602, i32 noundef %17, i32 noundef 26, i32 noundef 0)
  store ptr %18, ptr getelementptr inbounds nuw (%struct._rose_ctx_t, ptr @h450_rose_ctx, i32 0, i32 3), align 8
  %19 = load i32, ptr @proto_h450, align 4
  %20 = call ptr @register_dissector_table(ptr noundef @.str.603, ptr noundef @.str.604, i32 noundef %19, i32 noundef 7, i32 noundef 2)
  store ptr %20, ptr getelementptr inbounds nuw (%struct._rose_ctx_t, ptr @h450_rose_ctx, i32 0, i32 2), align 8
  %21 = load i32, ptr @proto_h450, align 4
  %22 = call ptr @register_dissector_table(ptr noundef @.str.605, ptr noundef @.str.606, i32 noundef %21, i32 noundef 7, i32 noundef 2)
  store ptr %22, ptr getelementptr inbounds nuw (%struct._rose_ctx_t, ptr @h450_rose_ctx, i32 0, i32 4), align 8
  %23 = load i32, ptr @proto_h450, align 4
  %24 = call ptr @register_dissector_table(ptr noundef @.str.607, ptr noundef @.str.608, i32 noundef %23, i32 noundef 26, i32 noundef 0)
  store ptr %24, ptr getelementptr inbounds nuw (%struct._rose_ctx_t, ptr @h450_rose_ctx, i32 0, i32 5), align 8
  %25 = load i32, ptr @proto_h450, align 4
  %26 = call ptr @register_dissector_table(ptr noundef @.str.609, ptr noundef @.str.610, i32 noundef %25, i32 noundef 7, i32 noundef 2)
  store ptr %26, ptr getelementptr inbounds nuw (%struct._rose_ctx_t, ptr @h450_rose_ctx, i32 0, i32 6), align 8
  call void @llvm.lifetime.end.p0(i64 8, ptr %1) #6
  ret void
}