; Function Attrs: null_pointer_is_valid sspstrong uwtable
define hidden void @proto_register_h450() local_unnamed_addr #0 {
  %1 = tail call i32 @proto_register_protocol(ptr noundef nonnull @.str.592, ptr noundef nonnull @.str.593, ptr noundef nonnull @.str.594)
  store i32 %1, ptr @proto_h450, align 4
  %2 = tail call ptr @register_dissector(ptr noundef nonnull @.str.595, ptr noundef nonnull @dissect_h450_H4501SupplementaryService_PDU, i32 noundef %1)
  %3 = load i32, ptr @proto_h450, align 4
  tail call void @proto_register_field_array(i32 noundef %3, ptr noundef nonnull @proto_register_h450.hf, i32 noundef 350)
  tail call void @proto_register_subtree_array(ptr noundef nonnull @proto_register_h450.ett, i32 noundef 134)
  %4 = load i32, ptr @proto_h450, align 4
  %5 = tail call ptr @expert_register_protocol(i32 noundef %4)
  tail call void @expert_register_field_array(ptr noundef %5, ptr noundef nonnull @proto_register_h450.ei, i32 noundef 3)
  tail call void @rose_ctx_init(ptr noundef nonnull @h450_rose_ctx)
  %6 = load i32, ptr @proto_h450, align 4
  %7 = tail call ptr @register_dissector(ptr noundef nonnull @.str.596, ptr noundef nonnull @dissect_h450_arg, i32 noundef %6)
  store ptr %7, ptr @h450_arg_handle, align 8
  %8 = load i32, ptr @proto_h450, align 4
  %9 = tail call ptr @register_dissector(ptr noundef nonnull @.str.597, ptr noundef nonnull @dissect_h450_res, i32 noundef %8)
  store ptr %9, ptr @h450_res_handle, align 8
  %10 = load i32, ptr @proto_h450, align 4
  %11 = tail call ptr @register_dissector(ptr noundef nonnull @.str.598, ptr noundef nonnull @dissect_h450_err, i32 noundef %10)
  store ptr %11, ptr @h450_err_handle, align 8
  %12 = load i32, ptr @proto_h450, align 4
  %13 = tail call ptr @register_dissector_table(ptr noundef nonnull @.str.599, ptr noundef nonnull @.str.600, i32 noundef %12, i32 noundef 26, i32 noundef 0)
  store ptr %13, ptr getelementptr inbounds nuw (i8, ptr @h450_rose_ctx, i64 8), align 8
  %14 = load i32, ptr @proto_h450, align 4
  %15 = tail call ptr @register_dissector_table(ptr noundef nonnull @.str.601, ptr noundef nonnull @.str.602, i32 noundef %14, i32 noundef 26, i32 noundef 0)
  store ptr %15, ptr getelementptr inbounds nuw (i8, ptr @h450_rose_ctx, i64 24), align 8
  %16 = load i32, ptr @proto_h450, align 4
  %17 = tail call ptr @register_dissector_table(ptr noundef nonnull @.str.603, ptr noundef nonnull @.str.604, i32 noundef %16, i32 noundef 7, i32 noundef 2)
  store ptr %17, ptr getelementptr inbounds nuw (i8, ptr @h450_rose_ctx, i64 16), align 8
  %18 = load i32, ptr @proto_h450, align 4
  %19 = tail call ptr @register_dissector_table(ptr noundef nonnull @.str.605, ptr noundef nonnull @.str.606, i32 noundef %18, i32 noundef 7, i32 noundef 2)
  store ptr %19, ptr getelementptr inbounds nuw (i8, ptr @h450_rose_ctx, i64 32), align 8
  %20 = load i32, ptr @proto_h450, align 4
  %21 = tail call ptr @register_dissector_table(ptr noundef nonnull @.str.607, ptr noundef nonnull @.str.608, i32 noundef %20, i32 noundef 26, i32 noundef 0)
  store ptr %21, ptr getelementptr inbounds nuw (i8, ptr @h450_rose_ctx, i64 40), align 8
  %22 = load i32, ptr @proto_h450, align 4
  %23 = tail call ptr @register_dissector_table(ptr noundef nonnull @.str.609, ptr noundef nonnull @.str.610, i32 noundef %22, i32 noundef 7, i32 noundef 2)
  store ptr %23, ptr getelementptr inbounds nuw (i8, ptr @h450_rose_ctx, i64 48), align 8
  ret void
}